; Function Attrs: mustprogress nounwind uwtable
define hidden void @_ZN10NativeCall5printEv(ptr noundef nonnull align 1 dereferenceable(1) %0) local_unnamed_addr #0 align 2 {
  %2 = load ptr, ptr @tty, align 8
  %3 = ptrtoint ptr %0 to i64
  %4 = getelementptr inbounds i8, ptr %0, i64 5
  %5 = getelementptr inbounds i8, ptr %0, i64 1
  %6 = load i32, ptr %5, align 4
  %7 = sext i32 %6 to i64
  %8 = getelementptr inbounds i8, ptr %4, i64 %7
  %9 = ptrtoint ptr %8 to i64
  tail call void (ptr, ptr, ...) @_ZN12outputStream8print_crEPKcz(ptr noundef nonnull align 8 dereferenceable(56) %2, ptr noundef nonnull @.str.6, i64 noundef %3, i64 noundef %9) #7
  ret void
}